; Function Attrs: null_pointer_is_valid sspstrong uwtable
define internal noundef ptr @copy_generic_one_id_string_cb(ptr noundef returned writeonly captures(ret: address, provenance) initializes((0, 16)) %0, ptr noundef readonly captures(none) %1, i64 %2) #0 {
  %4 = getelementptr inbounds nuw i8, ptr %1, i64 8
  %5 = load ptr, ptr %4, align 8
  %6 = tail call noalias ptr @g_strdup(ptr noundef %5)
  %7 = getelementptr inbounds nuw i8, ptr %0, i64 8
  store ptr %6, ptr %7, align 8
  %8 = getelementptr inbounds nuw i8, ptr %1, i64 4
  %9 = load i32, ptr %8, align 4
  %10 = getelementptr inbounds nuw i8, ptr %0, i64 4
  store i32 %9, ptr %10, align 4
  %11 = load i32, ptr %1, align 8
  store i32 %11, ptr %0, align 8
  ret ptr %0
}